; Function Attrs: mustprogress nofree nounwind willreturn memory(write, argmem: read, inaccessiblemem: readwrite) uwtable
define noalias noundef ptr @Lcr_ManAlloc(ptr noundef %0) local_unnamed_addr #0 {
  %calloc = tail call dereferenceable_or_null(136) ptr @calloc(i64 1, i64 136)
  store ptr %0, ptr %calloc, align 8
  %2 = getelementptr i8, ptr %0, i64 136
  %.val = load i32, ptr %2, align 8
  %3 = sext i32 %.val to i64
  %4 = shl nsw i64 %3, 2
  %calloc16 = tail call ptr @calloc(i64 1, i64 %4)
  %5 = getelementptr inbounds nuw i8, ptr %calloc, i64 24
  store ptr %calloc16, ptr %5, align 8
  %calloc17 = tail call ptr @calloc(i64 1, i64 %4)
  %6 = getelementptr inbounds nuw i8, ptr %calloc, i64 32
  store ptr %calloc17, ptr %6, align 8
  %7 = tail call noalias dereferenceable_or_null(16) ptr @malloc(i64 noundef 16) #17
  %8 = getelementptr inbounds nuw i8, ptr %7, i64 4
  store i32 0, ptr %8, align 4
  store i32 1000, ptr %7, align 8
  %9 = tail call noalias dereferenceable_or_null(8000) ptr @malloc(i64 noundef 8000) #17
  %10 = getelementptr inbounds nuw i8, ptr %7, i64 8
  store ptr %9, ptr %10, align 8
  %11 = getelementptr inbounds nuw i8, ptr %calloc, i64 40
  store ptr %7, ptr %11, align 8
  ret ptr %calloc
}